; Function Attrs: mustprogress uwtable
define noundef zeroext i1 @_ZN24SaveMeshAttributesDialog15shouldBeCheckedEiii(ptr nocapture noundef nonnull readonly align 8 dereferenceable(144) %0, i32 noundef %1, i32 noundef %2, i32 noundef %3) local_unnamed_addr #9 align 2 {
  %5 = getelementptr inbounds i8, ptr %0, i64 56
  %6 = load ptr, ptr %5, align 8
  %7 = tail call noundef i32 @_ZN9MeshModel5io2mmEi(i32 noundef %1)
  %8 = tail call noundef zeroext i1 @_ZNK9MeshModel11hasDataMaskEi(ptr noundef nonnull align 8 dereferenceable(1288) %6, i32 noundef %7)
  %9 = and i32 %3, %1
  %10 = icmp ne i32 %9, 0
  %.0 = and i1 %8, %10
  ret i1 %.0
}